; Function Attrs: mustprogress uwtable
define hidden noundef nonnull align 8 dereferenceable(8) ptr @_ZN4cvc58internal8EmptyBagaSERKS1_(ptr noundef nonnull readonly returned align 8 captures(ret: address, provenance) dereferenceable(8) %0, ptr noundef nonnull readonly align 8 captures(none) dereferenceable(8) %1) local_unnamed_addr #3 align 2 {
  %3 = load ptr, ptr %1, align 8, !tbaa !3
  %4 = load ptr, ptr %0, align 8, !tbaa !3
  %5 = load ptr, ptr %4, align 8, !tbaa !10
  %6 = load ptr, ptr %3, align 8, !tbaa !10
  %.not.i = icmp eq ptr %5, %6
  br i1 %.not.i, label %_ZN4cvc58internal8TypeNodeaSERKS1_.exit, label %7, !prof !26

7:                                                ; preds = %2
  %8 = load i64, ptr %5, align 8
  %9 = and i64 %8, 1152920405095219200
  %.not.i.i = icmp eq i64 %9, 1152920405095219200
  br i1 %.not.i.i, label %_ZN4cvc58internal4expr9NodeValue3decEv.exit.i, label %10, !prof !26

10:                                               ; preds = %7
  %11 = add i64 %8, 1152920405095219200
  %12 = and i64 %11, 1152920405095219200
  %13 = and i64 %8, -1152920405095219201
  %14 = or disjoint i64 %12, %13
  store i64 %14, ptr %5, align 8
  %15 = icmp eq i64 %12, 0
  br i1 %15, label %16, label %_ZN4cvc58internal4expr9NodeValue3decEv.exit.i, !prof !26

16:                                               ; preds = %10
  tail call void @_ZN4cvc58internal4expr9NodeValue15markForDeletionEv(ptr noundef nonnull align 8 dereferenceable(24) %5)
  br label %_ZN4cvc58internal4expr9NodeValue3decEv.exit.i

_ZN4cvc58internal4expr9NodeValue3decEv.exit.i:    ; preds = %16, %10, %7
  %17 = load ptr, ptr %3, align 8, !tbaa !10
  store ptr %17, ptr %4, align 8, !tbaa !10
  %18 = load i64, ptr %17, align 8
  %19 = lshr i64 %18, 40
  %20 = trunc nuw nsw i64 %19 to i32
  %21 = and i32 %20, 1048575
  %22 = icmp samesign ult i32 %21, 1048574
  br i1 %22, label %23, label %28, !prof !25

23:                                               ; preds = %_ZN4cvc58internal4expr9NodeValue3decEv.exit.i
  %24 = add i64 %18, 1099511627776
  %25 = and i64 %24, 1152920405095219200
  %26 = and i64 %18, -1152920405095219201
  %27 = or disjoint i64 %25, %26
  store i64 %27, ptr %17, align 8
  br label %_ZN4cvc58internal8TypeNodeaSERKS1_.exit

28:                                               ; preds = %_ZN4cvc58internal4expr9NodeValue3decEv.exit.i
  %29 = icmp eq i32 %21, 1048574
  br i1 %29, label %30, label %_ZN4cvc58internal8TypeNodeaSERKS1_.exit, !prof !26

30:                                               ; preds = %28
  %31 = or i64 %18, 1152920405095219200
  store i64 %31, ptr %17, align 8
  tail call void @_ZN4cvc58internal4expr9NodeValue20markRefCountMaxedOutEv(ptr noundef nonnull align 8 dereferenceable(24) %17)
  br label %_ZN4cvc58internal8TypeNodeaSERKS1_.exit

_ZN4cvc58internal8TypeNodeaSERKS1_.exit:          ; preds = %2, %23, %28, %30
  ret ptr %0
}